target datalayout = "e-m:e-p270:32:32-p271:32:32-p272:64:64-i64:64-i128:128-f80:128-n8:16:32:64-S128"
target triple = "x86_64-pc-linux-gnu"

%struct._address = type { i32, i32, ptr, ptr }
%struct.conversation_element = type { i32, %union.anon }
%union.anon = type { %struct._address }
%struct.anon = type { ptr, i64 }

; Function Attrs: inlinehint nounwind null_pointer_is_valid sspstrong uwtable
define internal i32 @add_address_to_hash(i32 noundef %0, ptr noundef %1) #9 {
  %3 = alloca i32, align 4
  %4 = alloca ptr, align 8
  %5 = alloca ptr, align 8
  %6 = alloca i32, align 4
  store i32 %0, ptr %3, align 4
  store ptr %1, ptr %4, align 8
  call void @llvm.lifetime.start.p0(i64 8, ptr %5) #12
  %7 = load ptr, ptr %4, align 8
  %8 = getelementptr inbounds nuw %struct._address, ptr %7, i32 0, i32 2
  %9 = load ptr, ptr %8, align 8
  store ptr %9, ptr %5, align 8
  call void @llvm.lifetime.start.p0(i64 4, ptr %6) #12
  store i32 0, ptr %6, align 4
  br label %10

10:                                               ; preds = %33, %2
  %11 = load i32, ptr %6, align 4
  %12 = load ptr, ptr %4, align 8
  %13 = getelementptr inbounds nuw %struct._address, ptr %12, i32 0, i32 1
  %14 = load i32, ptr %13, align 4
  %15 = icmp slt i32 %11, %14
  br i1 %15, label %16, label %36

16:                                               ; preds = %10
  %17 = load ptr, ptr %5, align 8
  %18 = load i32, ptr %6, align 4
  %19 = sext i32 %18 to i64
  %20 = getelementptr i8, ptr %17, i64 %19
  %21 = load i8, ptr %20, align 1
  %22 = zext i8 %21 to i32
  %23 = load i32, ptr %3, align 4
  %24 = add i32 %23, %22
  store i32 %24, ptr %3, align 4
  %25 = load i32, ptr %3, align 4
  %26 = shl i32 %25, 10
  %27 = load i32, ptr %3, align 4
  %28 = add i32 %27, %26
  store i32 %28, ptr %3, align 4
  %29 = load i32, ptr %3, align 4
  %30 = lshr i32 %29, 6
  %31 = load i32, ptr %3, align 4
  %32 = xor i32 %31, %30
  store i32 %32, ptr %3, align 4
  br label %33

33:                                               ; preds = %16
  %34 = load i32, ptr %6, align 4
  %35 = add i32 %34, 1
  store i32 %35, ptr %6, align 4
  br label %10, !llvm.loop !15

36:                                               ; preds = %10
  %37 = load i32, ptr %3, align 4
  call void @llvm.lifetime.end.p0(i64 4, ptr %6) #12
  call void @llvm.lifetime.end.p0(i64 8, ptr %5) #12
  ret i32 %37
}

; Function Attrs: null_pointer_is_valid sspstrong uwtable
define internal i32 @conversation_hash_element_list(ptr noundef %0) #0 {
  %2 = alloca i32, align 4
  %3 = alloca ptr, align 8
  %4 = alloca ptr, align 8
  %5 = alloca i32, align 4
  %6 = alloca %struct._address, align 8
  %7 = alloca i32, align 4
  store ptr %0, ptr %3, align 8
  call void @llvm.lifetime.start.p0(i64 8, ptr %4) #12
  %8 = load ptr, ptr %3, align 8
  store ptr %8, ptr %4, align 8
  call void @llvm.lifetime.start.p0(i64 4, ptr %5) #12
  store i32 0, ptr %5, align 4
  br label %9

9:                                                ; preds = %92, %1
  call void @llvm.lifetime.start.p0(i64 24, ptr %6) #12
  %10 = load ptr, ptr %4, align 8
  %11 = getelementptr inbounds nuw %struct.conversation_element, ptr %10, i32 0, i32 0
  %12 = load i32, ptr %11, align 8
  switch i32 %12, label %87 [
    i32 1, label %13
    i32 2, label %18
    i32 3, label %25
    i32 4, label %38
    i32 5, label %45
    i32 6, label %52
    i32 7, label %59
    i32 8, label %66
    i32 0, label %80
  ]

13:                                               ; preds = %9
  %14 = load i32, ptr %5, align 4
  %15 = load ptr, ptr %4, align 8
  %16 = getelementptr inbounds nuw %struct.conversation_element, ptr %15, i32 0, i32 1
  %17 = call i32 @add_address_to_hash(i32 noundef %14, ptr noundef %16)
  store i32 %17, ptr %5, align 4
  br label %87

18:                                               ; preds = %9
  %19 = getelementptr inbounds nuw %struct._address, ptr %6, i32 0, i32 1
  store i32 4, ptr %19, align 4
  %20 = load ptr, ptr %4, align 8
  %21 = getelementptr inbounds nuw %struct.conversation_element, ptr %20, i32 0, i32 1
  %22 = getelementptr inbounds nuw %struct._address, ptr %6, i32 0, i32 2
  store ptr %21, ptr %22, align 8
  %23 = load i32, ptr %5, align 4
  %24 = call i32 @add_address_to_hash(i32 noundef %23, ptr noundef %6)
  store i32 %24, ptr %5, align 4
  br label %87

25:                                               ; preds = %9
  %26 = load ptr, ptr %4, align 8
  %27 = getelementptr inbounds nuw %struct.conversation_element, ptr %26, i32 0, i32 1
  %28 = load ptr, ptr %27, align 8
  %29 = call i64 @strlen(ptr noundef %28) #14
  %30 = trunc i64 %29 to i32
  %31 = getelementptr inbounds nuw %struct._address, ptr %6, i32 0, i32 1
  store i32 %30, ptr %31, align 4
  %32 = load ptr, ptr %4, align 8
  %33 = getelementptr inbounds nuw %struct.conversation_element, ptr %32, i32 0, i32 1
  %34 = load ptr, ptr %33, align 8
  %35 = getelementptr inbounds nuw %struct._address, ptr %6, i32 0, i32 2
  store ptr %34, ptr %35, align 8
  %36 = load i32, ptr %5, align 4
  %37 = call i32 @add_address_to_hash(i32 noundef %36, ptr noundef %6)
  store i32 %37, ptr %5, align 4
  br label %87

38:                                               ; preds = %9
  %39 = getelementptr inbounds nuw %struct._address, ptr %6, i32 0, i32 1
  store i32 4, ptr %39, align 4
  %40 = load ptr, ptr %4, align 8
  %41 = getelementptr inbounds nuw %struct.conversation_element, ptr %40, i32 0, i32 1
  %42 = getelementptr inbounds nuw %struct._address, ptr %6, i32 0, i32 2
  store ptr %41, ptr %42, align 8
  %43 = load i32, ptr %5, align 4
  %44 = call i32 @add_address_to_hash(i32 noundef %43, ptr noundef %6)
  store i32 %44, ptr %5, align 4
  br label %87

45:                                               ; preds = %9
  %46 = getelementptr inbounds nuw %struct._address, ptr %6, i32 0, i32 1
  store i32 8, ptr %46, align 4
  %47 = load ptr, ptr %4, align 8
  %48 = getelementptr inbounds nuw %struct.conversation_element, ptr %47, i32 0, i32 1
  %49 = getelementptr inbounds nuw %struct._address, ptr %6, i32 0, i32 2
  store ptr %48, ptr %49, align 8
  %50 = load i32, ptr %5, align 4
  %51 = call i32 @add_address_to_hash(i32 noundef %50, ptr noundef %6)
  store i32 %51, ptr %5, align 4
  br label %87

52:                                               ; preds = %9
  %53 = getelementptr inbounds nuw %struct._address, ptr %6, i32 0, i32 1
  store i32 4, ptr %53, align 4
  %54 = load ptr, ptr %4, align 8
  %55 = getelementptr inbounds nuw %struct.conversation_element, ptr %54, i32 0, i32 1
  %56 = getelementptr inbounds nuw %struct._address, ptr %6, i32 0, i32 2
  store ptr %55, ptr %56, align 8
  %57 = load i32, ptr %5, align 4
  %58 = call i32 @add_address_to_hash(i32 noundef %57, ptr noundef %6)
  store i32 %58, ptr %5, align 4
  br label %87

59:                                               ; preds = %9
  %60 = getelementptr inbounds nuw %struct._address, ptr %6, i32 0, i32 1
  store i32 8, ptr %60, align 4
  %61 = load ptr, ptr %4, align 8
  %62 = getelementptr inbounds nuw %struct.conversation_element, ptr %61, i32 0, i32 1
  %63 = getelementptr inbounds nuw %struct._address, ptr %6, i32 0, i32 2
  store ptr %62, ptr %63, align 8
  %64 = load i32, ptr %5, align 4
  %65 = call i32 @add_address_to_hash(i32 noundef %64, ptr noundef %6)
  store i32 %65, ptr %5, align 4
  br label %87

66:                                               ; preds = %9
  %67 = load ptr, ptr %4, align 8
  %68 = getelementptr inbounds nuw %struct.conversation_element, ptr %67, i32 0, i32 1
  %69 = getelementptr inbounds nuw %struct.anon, ptr %68, i32 0, i32 1
  %70 = load i64, ptr %69, align 8
  %71 = trunc i64 %70 to i32
  %72 = getelementptr inbounds nuw %struct._address, ptr %6, i32 0, i32 1
  store i32 %71, ptr %72, align 4
  %73 = load ptr, ptr %4, align 8
  %74 = getelementptr inbounds nuw %struct.conversation_element, ptr %73, i32 0, i32 1
  %75 = getelementptr inbounds nuw %struct.anon, ptr %74, i32 0, i32 0
  %76 = load ptr, ptr %75, align 8
  %77 = getelementptr inbounds nuw %struct._address, ptr %6, i32 0, i32 2
  store ptr %76, ptr %77, align 8
  %78 = load i32, ptr %5, align 4
  %79 = call i32 @add_address_to_hash(i32 noundef %78, ptr noundef %6)
  store i32 %79, ptr %5, align 4
  br label %87

80:                                               ; preds = %9
  %81 = getelementptr inbounds nuw %struct._address, ptr %6, i32 0, i32 1
  store i32 4, ptr %81, align 4
  %82 = load ptr, ptr %4, align 8
  %83 = getelementptr inbounds nuw %struct.conversation_element, ptr %82, i32 0, i32 1
  %84 = getelementptr inbounds nuw %struct._address, ptr %6, i32 0, i32 2
  store ptr %83, ptr %84, align 8
  %85 = load i32, ptr %5, align 4
  %86 = call i32 @add_address_to_hash(i32 noundef %85, ptr noundef %6)
  store i32 %86, ptr %5, align 4
  store i32 5, ptr %7, align 4
  br label %90

87:                                               ; preds = %9, %66, %59, %52, %45, %38, %25, %18, %13
  %88 = load ptr, ptr %4, align 8
  %89 = getelementptr %struct.conversation_element, ptr %88, i32 1
  store ptr %89, ptr %4, align 8
  store i32 0, ptr %7, align 4
  br label %90

90:                                               ; preds = %80, %87
  call void @llvm.lifetime.end.p0(i64 24, ptr %6) #12
  %91 = load i32, ptr %7, align 4
  switch i32 %91, label %107 [
    i32 0, label %92
    i32 5, label %93
  ]

92:                                               ; preds = %90
  br label %9

93:                                               ; preds = %90
  %94 = load i32, ptr %5, align 4
  %95 = shl i32 %94, 3
  %96 = load i32, ptr %5, align 4
  %97 = add i32 %96, %95
  store i32 %97, ptr %5, align 4
  %98 = load i32, ptr %5, align 4
  %99 = lshr i32 %98, 11
  %100 = load i32, ptr %5, align 4
  %101 = xor i32 %100, %99
  store i32 %101, ptr %5, align 4
  %102 = load i32, ptr %5, align 4
  %103 = shl i32 %102, 15
  %104 = load i32, ptr %5, align 4
  %105 = add i32 %104, %103
  store i32 %105, ptr %5, align 4
  %106 = load i32, ptr %5, align 4
  store i32 %106, ptr %2, align 4
  store i32 1, ptr %7, align 4
  br label %107

107:                                              ; preds = %93, %90
  call void @llvm.lifetime.end.p0(i64 4, ptr %5) #12
  call void @llvm.lifetime.end.p0(i64 8, ptr %4) #12
  %108 = load i32, ptr %2, align 4
  ret i32 %108
}